target datalayout = "e-m:e-p270:32:32-p271:32:32-p272:64:64-i64:64-i128:128-f80:128-n8:16:32:64-S128"
target triple = "x86_64-pc-linux-gnu"

%struct.VP3DSPContext = type { ptr, ptr, ptr, ptr, ptr, ptr, ptr, ptr }

; Function Attrs: cold nounwind optsize uwtable
define void @ff_vp3dsp_init(ptr noundef %0, i32 noundef %1) #3 {
  %3 = alloca ptr, align 8
  %4 = alloca i32, align 4
  store ptr %0, ptr %3, align 8, !tbaa !25
  store i32 %1, ptr %4, align 4, !tbaa !13
  %5 = load ptr, ptr %3, align 8, !tbaa !25
  %6 = getelementptr inbounds nuw %struct.VP3DSPContext, ptr %5, i32 0, i32 0
  store ptr @put_no_rnd_pixels_l2, ptr %6, align 8, !tbaa !27
  %7 = load ptr, ptr %3, align 8, !tbaa !25
  %8 = getelementptr inbounds nuw %struct.VP3DSPContext, ptr %7, i32 0, i32 1
  store ptr @vp3_idct_put_c, ptr %8, align 8, !tbaa !29
  %9 = load ptr, ptr %3, align 8, !tbaa !25
  %10 = getelementptr inbounds nuw %struct.VP3DSPContext, ptr %9, i32 0, i32 2
  store ptr @vp3_idct_add_c, ptr %10, align 8, !tbaa !30
  %11 = load ptr, ptr %3, align 8, !tbaa !25
  %12 = getelementptr inbounds nuw %struct.VP3DSPContext, ptr %11, i32 0, i32 3
  store ptr @vp3_idct_dc_add_c, ptr %12, align 8, !tbaa !31
  %13 = load ptr, ptr %3, align 8, !tbaa !25
  %14 = getelementptr inbounds nuw %struct.VP3DSPContext, ptr %13, i32 0, i32 6
  store ptr @vp3_v_loop_filter_8_c, ptr %14, align 8, !tbaa !32
  %15 = load ptr, ptr %3, align 8, !tbaa !25
  %16 = getelementptr inbounds nuw %struct.VP3DSPContext, ptr %15, i32 0, i32 4
  store ptr @vp3_v_loop_filter_8_c, ptr %16, align 8, !tbaa !33
  %17 = load ptr, ptr %3, align 8, !tbaa !25
  %18 = getelementptr inbounds nuw %struct.VP3DSPContext, ptr %17, i32 0, i32 7
  store ptr @vp3_h_loop_filter_8_c, ptr %18, align 8, !tbaa !34
  %19 = load ptr, ptr %3, align 8, !tbaa !25
  %20 = getelementptr inbounds nuw %struct.VP3DSPContext, ptr %19, i32 0, i32 5
  store ptr @vp3_h_loop_filter_8_c, ptr %20, align 8, !tbaa !35
  ret void
}