; Function Attrs: cold mustprogress nofree norecurse nosync nounwind optsize willreturn memory(argmem: write) uwtable
define void @ff_vp3dsp_init(ptr noundef writeonly captures(none) initializes((0, 64)) %0, i32 noundef %1) local_unnamed_addr #2 {
  store ptr @put_no_rnd_pixels_l2, ptr %0, align 8, !tbaa !16
  %3 = getelementptr inbounds nuw i8, ptr %0, i64 8
  store ptr @vp3_idct_put_c, ptr %3, align 8, !tbaa !19
  %4 = getelementptr inbounds nuw i8, ptr %0, i64 16
  store ptr @vp3_idct_add_c, ptr %4, align 8, !tbaa !20
  %5 = getelementptr inbounds nuw i8, ptr %0, i64 24
  store ptr @vp3_idct_dc_add_c, ptr %5, align 8, !tbaa !21
  %6 = getelementptr inbounds nuw i8, ptr %0, i64 48
  store ptr @vp3_v_loop_filter_8_c, ptr %6, align 8, !tbaa !22
  %7 = getelementptr inbounds nuw i8, ptr %0, i64 32
  store ptr @vp3_v_loop_filter_8_c, ptr %7, align 8, !tbaa !23
  %8 = getelementptr inbounds nuw i8, ptr %0, i64 56
  store ptr @vp3_h_loop_filter_8_c, ptr %8, align 8, !tbaa !24
  %9 = getelementptr inbounds nuw i8, ptr %0, i64 40
  store ptr @vp3_h_loop_filter_8_c, ptr %9, align 8, !tbaa !25
  ret void
}